target datalayout = "e-m:e-p270:32:32-p271:32:32-p272:64:64-i64:64-i128:128-f80:128-n8:16:32:64-S128"
target triple = "x86_64-pc-linux-gnu"

%class.cmGeneratorExpressionEvaluationFile = type { %"class.std::__cxx11::basic_string", %"class.std::__cxx11::basic_string", %"class.std::unique_ptr", %"class.std::unique_ptr", %"class.std::vector", i8, %"class.std::__cxx11::basic_string", i32, i32 }
%"class.std::unique_ptr" = type { %"struct.std::__uniq_ptr_data" }
%"struct.std::__uniq_ptr_data" = type { %"class.std::__uniq_ptr_impl" }
%"class.std::__uniq_ptr_impl" = type { %"class.std::tuple" }
%"class.std::tuple" = type { %"struct.std::_Tuple_impl" }
%"struct.std::_Tuple_impl" = type { %"struct.std::_Head_base.1" }
%"struct.std::_Head_base.1" = type { ptr }
%"class.std::vector" = type { %"struct.std::_Vector_base" }
%"struct.std::_Vector_base" = type { %"struct.std::_Vector_base<std::__cxx11::basic_string<char>, std::allocator<std::__cxx11::basic_string<char>>>::_Vector_impl" }
%"struct.std::_Vector_base<std::__cxx11::basic_string<char>, std::allocator<std::__cxx11::basic_string<char>>>::_Vector_impl" = type { %"struct.std::_Vector_base<std::__cxx11::basic_string<char>, std::allocator<std::__cxx11::basic_string<char>>>::_Vector_impl_data" }
%"struct.std::_Vector_base<std::__cxx11::basic_string<char>, std::allocator<std::__cxx11::basic_string<char>>>::_Vector_impl_data" = type { ptr, ptr, ptr }
%"class.std::__cxx11::basic_string" = type { %"struct.std::__cxx11::basic_string<char>::_Alloc_hider", i64, %union.anon }
%"struct.std::__cxx11::basic_string<char>::_Alloc_hider" = type { ptr }
%union.anon = type { i64, [8 x i8] }

; Function Attrs: mustprogress nounwind uwtable
define linkonce_odr dso_local noundef nonnull align 8 dereferenceable(8) ptr @_ZNSt10_Head_baseILm0EP29cmCompiledGeneratorExpressionLb0EE7_M_headERS2_(ptr noundef nonnull align 8 dereferenceable(8) %0) #4 comdat align 2 {
  %2 = alloca ptr, align 8
  store ptr %0, ptr %2, align 8
  %3 = load ptr, ptr %2, align 8
  %4 = getelementptr inbounds %"struct.std::_Head_base.1", ptr %3, i32 0, i32 0
  ret ptr %4
}

; Function Attrs: mustprogress nounwind uwtable
define linkonce_odr dso_local noundef nonnull align 8 dereferenceable(8) ptr @_ZNSt11_Tuple_implILm0EJP29cmCompiledGeneratorExpressionSt14default_deleteIS0_EEE7_M_headERS4_(ptr noundef nonnull align 8 dereferenceable(8) %0) #4 comdat align 2 {
  %2 = alloca ptr, align 8
  store ptr %0, ptr %2, align 8
  %3 = load ptr, ptr %2, align 8
  %4 = call noundef nonnull align 8 dereferenceable(8) ptr @_ZNSt10_Head_baseILm0EP29cmCompiledGeneratorExpressionLb0EE7_M_headERS2_(ptr noundef nonnull align 8 dereferenceable(8) %3) #3
  ret ptr %4
}

; Function Attrs: mustprogress nounwind uwtable
define linkonce_odr dso_local noundef nonnull align 8 dereferenceable(8) ptr @_ZSt12__get_helperILm0EP29cmCompiledGeneratorExpressionJSt14default_deleteIS0_EEERT0_RSt11_Tuple_implIXT_EJS4_DpT1_EE(ptr noundef nonnull align 8 dereferenceable(8) %0) #4 comdat {
  %2 = alloca ptr, align 8
  store ptr %0, ptr %2, align 8
  %3 = load ptr, ptr %2, align 8
  %4 = call noundef nonnull align 8 dereferenceable(8) ptr @_ZNSt11_Tuple_implILm0EJP29cmCompiledGeneratorExpressionSt14default_deleteIS0_EEE7_M_headERS4_(ptr noundef nonnull align 8 dereferenceable(8) %3) #3
  ret ptr %4
}

; Function Attrs: mustprogress nounwind uwtable
define linkonce_odr dso_local void @_ZNSt11_Tuple_implILm1EJSt14default_deleteI29cmCompiledGeneratorExpressionEEEC2EOS3_(ptr noundef nonnull align 1 dereferenceable(1) %0, ptr noundef nonnull align 1 dereferenceable(1) %1) unnamed_addr #4 comdat align 2 {
  %3 = alloca ptr, align 8
  %4 = alloca ptr, align 8
  store ptr %0, ptr %3, align 8
  store ptr %1, ptr %4, align 8
  ret void
}

; Function Attrs: mustprogress nounwind uwtable
define linkonce_odr dso_local void @_ZNSt15__new_allocatorINSt7__cxx1112basic_stringIcSt11char_traitsIcESaIcEEEEC2Ev(ptr noundef nonnull align 1 dereferenceable(1) %0) unnamed_addr #4 comdat align 2 {
  %2 = alloca ptr, align 8
  store ptr %0, ptr %2, align 8
  ret void
}

; Function Attrs: mustprogress nounwind uwtable
define linkonce_odr dso_local noundef nonnull align 8 dereferenceable(8) ptr @_ZSt3getILm0EJP29cmCompiledGeneratorExpressionSt14default_deleteIS0_EEERNSt13tuple_elementIXT_ESt5tupleIJDpT0_EEE4typeERS8_(ptr noundef nonnull align 8 dereferenceable(8) %0) #4 comdat {
  %2 = alloca ptr, align 8
  store ptr %0, ptr %2, align 8
  %3 = load ptr, ptr %2, align 8
  %4 = call noundef nonnull align 8 dereferenceable(8) ptr @_ZSt12__get_helperILm0EP29cmCompiledGeneratorExpressionJSt14default_deleteIS0_EEERT0_RSt11_Tuple_implIXT_EJS4_DpT1_EE(ptr noundef nonnull align 8 dereferenceable(8) %3) #3
  ret ptr %4
}

; Function Attrs: mustprogress nounwind uwtable
define linkonce_odr dso_local void @_ZNSt11_Tuple_implILm0EJP29cmCompiledGeneratorExpressionSt14default_deleteIS0_EEEC2EOS4_(ptr noundef nonnull align 8 dereferenceable(8) %0, ptr noundef nonnull align 8 dereferenceable(8) %1) unnamed_addr #4 comdat align 2 {
  %3 = alloca ptr, align 8
  %4 = alloca ptr, align 8
  store ptr %0, ptr %3, align 8
  store ptr %1, ptr %4, align 8
  %5 = load ptr, ptr %3, align 8
  %6 = load ptr, ptr %4, align 8
  call void @_ZNSt11_Tuple_implILm1EJSt14default_deleteI29cmCompiledGeneratorExpressionEEEC2EOS3_(ptr noundef nonnull align 1 dereferenceable(1) %5, ptr noundef nonnull align 1 dereferenceable(1) %6) #3
  %7 = load ptr, ptr %4, align 8
  call void @llvm.memcpy.p0.p0.i64(ptr align 8 %5, ptr align 8 %7, i64 8, i1 false)
  ret void
}

; Function Attrs: mustprogress nounwind uwtable
define linkonce_odr dso_local void @_ZNSt12_Vector_baseINSt7__cxx1112basic_stringIcSt11char_traitsIcESaIcEEESaIS5_EE17_Vector_impl_dataC2Ev(ptr noundef nonnull align 8 dereferenceable(24) %0) unnamed_addr #4 comdat align 2 {
  %2 = alloca ptr, align 8
  store ptr %0, ptr %2, align 8
  %3 = load ptr, ptr %2, align 8
  %4 = getelementptr inbounds %"struct.std::_Vector_base<std::__cxx11::basic_string<char>, std::allocator<std::__cxx11::basic_string<char>>>::_Vector_impl_data", ptr %3, i32 0, i32 0
  store ptr null, ptr %4, align 8
  %5 = getelementptr inbounds %"struct.std::_Vector_base<std::__cxx11::basic_string<char>, std::allocator<std::__cxx11::basic_string<char>>>::_Vector_impl_data", ptr %3, i32 0, i32 1
  store ptr null, ptr %5, align 8
  %6 = getelementptr inbounds %"struct.std::_Vector_base<std::__cxx11::basic_string<char>, std::allocator<std::__cxx11::basic_string<char>>>::_Vector_impl_data", ptr %3, i32 0, i32 2
  store ptr null, ptr %6, align 8
  ret void
}

; Function Attrs: mustprogress nounwind uwtable
define linkonce_odr dso_local void @_ZNSaINSt7__cxx1112basic_stringIcSt11char_traitsIcESaIcEEEEC2Ev(ptr noundef nonnull align 1 dereferenceable(1) %0) unnamed_addr #4 comdat align 2 {
  %2 = alloca ptr, align 8
  store ptr %0, ptr %2, align 8
  %3 = load ptr, ptr %2, align 8
  call void @_ZNSt15__new_allocatorINSt7__cxx1112basic_stringIcSt11char_traitsIcESaIcEEEEC2Ev(ptr noundef nonnull align 1 dereferenceable(1) %3) #3
  ret void
}

; Function Attrs: mustprogress nounwind uwtable
define linkonce_odr dso_local noundef nonnull align 8 dereferenceable(8) ptr @_ZNSt15__uniq_ptr_implI29cmCompiledGeneratorExpressionSt14default_deleteIS0_EE6_M_ptrEv(ptr noundef nonnull align 8 dereferenceable(8) %0) #4 comdat align 2 {
  %2 = alloca ptr, align 8
  store ptr %0, ptr %2, align 8
  %3 = load ptr, ptr %2, align 8
  %4 = getelementptr inbounds %"class.std::__uniq_ptr_impl", ptr %3, i32 0, i32 0
  %5 = call noundef nonnull align 8 dereferenceable(8) ptr @_ZSt3getILm0EJP29cmCompiledGeneratorExpressionSt14default_deleteIS0_EEERNSt13tuple_elementIXT_ESt5tupleIJDpT0_EEE4typeERS8_(ptr noundef nonnull align 8 dereferenceable(8) %4) #3
  ret ptr %5
}

; Function Attrs: mustprogress nounwind uwtable
define linkonce_odr dso_local void @_ZNSt5tupleIJP29cmCompiledGeneratorExpressionSt14default_deleteIS0_EEEC2EOS4_(ptr noundef nonnull align 8 dereferenceable(8) %0, ptr noundef nonnull align 8 dereferenceable(8) %1) unnamed_addr #4 comdat align 2 {
  %3 = alloca ptr, align 8
  %4 = alloca ptr, align 8
  store ptr %0, ptr %3, align 8
  store ptr %1, ptr %4, align 8
  %5 = load ptr, ptr %3, align 8
  %6 = load ptr, ptr %4, align 8
  call void @_ZNSt11_Tuple_implILm0EJP29cmCompiledGeneratorExpressionSt14default_deleteIS0_EEEC2EOS4_(ptr noundef nonnull align 8 dereferenceable(8) %5, ptr noundef nonnull align 8 dereferenceable(8) %6) #3
  ret void
}

; Function Attrs: mustprogress nounwind uwtable
define linkonce_odr dso_local void @_ZNSt12_Vector_baseINSt7__cxx1112basic_stringIcSt11char_traitsIcESaIcEEESaIS5_EE12_Vector_implC2Ev(ptr noundef nonnull align 8 dereferenceable(24) %0) unnamed_addr #4 comdat align 2 {
  %2 = alloca ptr, align 8
  store ptr %0, ptr %2, align 8
  %3 = load ptr, ptr %2, align 8
  call void @_ZNSaINSt7__cxx1112basic_stringIcSt11char_traitsIcESaIcEEEEC2Ev(ptr noundef nonnull align 1 dereferenceable(1) %3) #3
  call void @_ZNSt12_Vector_baseINSt7__cxx1112basic_stringIcSt11char_traitsIcESaIcEEESaIS5_EE17_Vector_impl_dataC2Ev(ptr noundef nonnull align 8 dereferenceable(24) %3) #3
  ret void
}

; Function Attrs: mustprogress nounwind uwtable
define linkonce_odr dso_local void @_ZNSt15__uniq_ptr_implI29cmCompiledGeneratorExpressionSt14default_deleteIS0_EEC2EOS3_(ptr noundef nonnull align 8 dereferenceable(8) %0, ptr noundef nonnull align 8 dereferenceable(8) %1) unnamed_addr #4 comdat align 2 {
  %3 = alloca ptr, align 8
  %4 = alloca ptr, align 8
  store ptr %0, ptr %3, align 8
  store ptr %1, ptr %4, align 8
  %5 = load ptr, ptr %3, align 8
  %6 = getelementptr inbounds %"class.std::__uniq_ptr_impl", ptr %5, i32 0, i32 0
  %7 = load ptr, ptr %4, align 8
  %8 = getelementptr inbounds %"class.std::__uniq_ptr_impl", ptr %7, i32 0, i32 0
  call void @_ZNSt5tupleIJP29cmCompiledGeneratorExpressionSt14default_deleteIS0_EEEC2EOS4_(ptr noundef nonnull align 8 dereferenceable(8) %6, ptr noundef nonnull align 8 dereferenceable(8) %8) #3
  %9 = load ptr, ptr %4, align 8
  %10 = call noundef nonnull align 8 dereferenceable(8) ptr @_ZNSt15__uniq_ptr_implI29cmCompiledGeneratorExpressionSt14default_deleteIS0_EE6_M_ptrEv(ptr noundef nonnull align 8 dereferenceable(8) %9) #3
  store ptr null, ptr %10, align 8
  ret void
}

; Function Attrs: mustprogress nounwind uwtable
define linkonce_odr dso_local void @_ZNSt12_Vector_baseINSt7__cxx1112basic_stringIcSt11char_traitsIcESaIcEEESaIS5_EEC2Ev(ptr noundef nonnull align 8 dereferenceable(24) %0) unnamed_addr #4 comdat align 2 {
  %2 = alloca ptr, align 8
  store ptr %0, ptr %2, align 8
  %3 = load ptr, ptr %2, align 8
  %4 = getelementptr inbounds %"struct.std::_Vector_base", ptr %3, i32 0, i32 0
  call void @_ZNSt12_Vector_baseINSt7__cxx1112basic_stringIcSt11char_traitsIcESaIcEEESaIS5_EE12_Vector_implC2Ev(ptr noundef nonnull align 8 dereferenceable(24) %4) #3
  ret void
}

; Function Attrs: mustprogress nounwind uwtable
define linkonce_odr dso_local void @_ZNSt15__uniq_ptr_dataI29cmCompiledGeneratorExpressionSt14default_deleteIS0_ELb1ELb1EEC2EOS3_(ptr noundef nonnull align 8 dereferenceable(8) %0, ptr noundef nonnull align 8 dereferenceable(8) %1) unnamed_addr #4 comdat align 2 {
  %3 = alloca ptr, align 8
  %4 = alloca ptr, align 8
  store ptr %0, ptr %3, align 8
  store ptr %1, ptr %4, align 8
  %5 = load ptr, ptr %3, align 8
  %6 = load ptr, ptr %4, align 8
  call void @_ZNSt15__uniq_ptr_implI29cmCompiledGeneratorExpressionSt14default_deleteIS0_EEC2EOS3_(ptr noundef nonnull align 8 dereferenceable(8) %5, ptr noundef nonnull align 8 dereferenceable(8) %6) #3
  ret void
}

; Function Attrs: mustprogress nounwind uwtable
define linkonce_odr dso_local void @_ZNSt6vectorINSt7__cxx1112basic_stringIcSt11char_traitsIcESaIcEEESaIS5_EEC2Ev(ptr noundef nonnull align 8 dereferenceable(24) %0) unnamed_addr #4 comdat align 2 {
  %2 = alloca ptr, align 8
  store ptr %0, ptr %2, align 8
  %3 = load ptr, ptr %2, align 8
  call void @_ZNSt12_Vector_baseINSt7__cxx1112basic_stringIcSt11char_traitsIcESaIcEEESaIS5_EEC2Ev(ptr noundef nonnull align 8 dereferenceable(24) %3) #3
  ret void
}

; Function Attrs: mustprogress nounwind uwtable
define linkonce_odr dso_local void @_ZNSt10unique_ptrI29cmCompiledGeneratorExpressionSt14default_deleteIS0_EEC2EOS3_(ptr noundef nonnull align 8 dereferenceable(8) %0, ptr noundef nonnull align 8 dereferenceable(8) %1) unnamed_addr #4 comdat align 2 {
  %3 = alloca ptr, align 8
  %4 = alloca ptr, align 8
  store ptr %0, ptr %3, align 8
  store ptr %1, ptr %4, align 8
  %5 = load ptr, ptr %3, align 8
  %6 = getelementptr inbounds %"class.std::unique_ptr", ptr %5, i32 0, i32 0
  %7 = load ptr, ptr %4, align 8
  %8 = getelementptr inbounds %"class.std::unique_ptr", ptr %7, i32 0, i32 0
  call void @_ZNSt15__uniq_ptr_dataI29cmCompiledGeneratorExpressionSt14default_deleteIS0_ELb1ELb1EEC2EOS3_(ptr noundef nonnull align 8 dereferenceable(8) %6, ptr noundef nonnull align 8 dereferenceable(8) %8) #3
  ret void
}

; Function Attrs: mustprogress nounwind uwtable
define dso_local void @_ZN35cmGeneratorExpressionEvaluationFileC2ENSt7__cxx1112basic_stringIcSt11char_traitsIcESaIcEEES5_St10unique_ptrI29cmCompiledGeneratorExpressionSt14default_deleteIS7_EESA_bS5_jN10cmPolicies12PolicyStatusE(ptr noundef nonnull align 8 dereferenceable(152) %0, ptr noundef %1, ptr noundef %2, ptr noundef %3, ptr noundef %4, i1 noundef zeroext %5, ptr noundef %6, i32 noundef %7, i32 noundef %8) unnamed_addr #4 align 2 {
  %10 = alloca ptr, align 8
  %11 = alloca ptr, align 8
  %12 = alloca ptr, align 8
  %13 = alloca ptr, align 8
  %14 = alloca ptr, align 8
  %15 = alloca i8, align 1
  %16 = alloca ptr, align 8
  %17 = alloca i32, align 4
  %18 = alloca i32, align 4
  store ptr %0, ptr %10, align 8
  store ptr %1, ptr %11, align 8
  store ptr %2, ptr %12, align 8
  store ptr %3, ptr %13, align 8
  store ptr %4, ptr %14, align 8
  %19 = zext i1 %5 to i8
  store i8 %19, ptr %15, align 1
  store ptr %6, ptr %16, align 8
  store i32 %7, ptr %17, align 4
  store i32 %8, ptr %18, align 4
  %20 = load ptr, ptr %10, align 8
  %21 = getelementptr inbounds %class.cmGeneratorExpressionEvaluationFile, ptr %20, i32 0, i32 0
  call void @_ZNSt7__cxx1112basic_stringIcSt11char_traitsIcESaIcEEC1EOS4_(ptr noundef nonnull align 8 dereferenceable(32) %21, ptr noundef nonnull align 8 dereferenceable(32) %1) #3
  %22 = getelementptr inbounds %class.cmGeneratorExpressionEvaluationFile, ptr %20, i32 0, i32 1
  call void @_ZNSt7__cxx1112basic_stringIcSt11char_traitsIcESaIcEEC1EOS4_(ptr noundef nonnull align 8 dereferenceable(32) %22, ptr noundef nonnull align 8 dereferenceable(32) %2) #3
  %23 = getelementptr inbounds %class.cmGeneratorExpressionEvaluationFile, ptr %20, i32 0, i32 2
  call void @_ZNSt10unique_ptrI29cmCompiledGeneratorExpressionSt14default_deleteIS0_EEC2EOS3_(ptr noundef nonnull align 8 dereferenceable(8) %23, ptr noundef nonnull align 8 dereferenceable(8) %3) #3
  %24 = getelementptr inbounds %class.cmGeneratorExpressionEvaluationFile, ptr %20, i32 0, i32 3
  call void @_ZNSt10unique_ptrI29cmCompiledGeneratorExpressionSt14default_deleteIS0_EEC2EOS3_(ptr noundef nonnull align 8 dereferenceable(8) %24, ptr noundef nonnull align 8 dereferenceable(8) %4) #3
  %25 = getelementptr inbounds %class.cmGeneratorExpressionEvaluationFile, ptr %20, i32 0, i32 4
  call void @_ZNSt6vectorINSt7__cxx1112basic_stringIcSt11char_traitsIcESaIcEEESaIS5_EEC2Ev(ptr noundef nonnull align 8 dereferenceable(24) %25) #3
  %26 = getelementptr inbounds %class.cmGeneratorExpressionEvaluationFile, ptr %20, i32 0, i32 5
  %27 = load i8, ptr %15, align 1
  %28 = trunc i8 %27 to i1
  %29 = zext i1 %28 to i8
  store i8 %29, ptr %26, align 8
  %30 = getelementptr inbounds %class.cmGeneratorExpressionEvaluationFile, ptr %20, i32 0, i32 6
  call void @_ZNSt7__cxx1112basic_stringIcSt11char_traitsIcESaIcEEC1EOS4_(ptr noundef nonnull align 8 dereferenceable(32) %30, ptr noundef nonnull align 8 dereferenceable(32) %6) #3
  %31 = getelementptr inbounds %class.cmGeneratorExpressionEvaluationFile, ptr %20, i32 0, i32 7
  %32 = load i32, ptr %18, align 4
  store i32 %32, ptr %31, align 8
  %33 = getelementptr inbounds %class.cmGeneratorExpressionEvaluationFile, ptr %20, i32 0, i32 8
  %34 = load i32, ptr %17, align 4
  store i32 %34, ptr %33, align 4
  ret void
}