; Function Attrs: mustprogress nounwind uwtable
define dso_local void @_ZN35cmGeneratorExpressionEvaluationFileC2ENSt7__cxx1112basic_stringIcSt11char_traitsIcESaIcEEES5_St10unique_ptrI29cmCompiledGeneratorExpressionSt14default_deleteIS7_EESA_bS5_jN10cmPolicies12PolicyStatusE(ptr noundef nonnull align 8 dereferenceable(152) %0, ptr noundef nonnull %1, ptr noundef %2, ptr noundef captures(none) %3, ptr noundef captures(none) %4, i1 noundef zeroext %5, ptr noundef %6, i32 noundef %7, i32 noundef %8) unnamed_addr #3 align 2 {
  %10 = zext i1 %5 to i8
  tail call void @_ZNSt7__cxx1112basic_stringIcSt11char_traitsIcESaIcEEC1EOS4_(ptr noundef nonnull align 8 dereferenceable(32) %0, ptr noundef nonnull align 8 dereferenceable(32) %1) #19
  %11 = getelementptr inbounds nuw i8, ptr %0, i64 32
  tail call void @_ZNSt7__cxx1112basic_stringIcSt11char_traitsIcESaIcEEC1EOS4_(ptr noundef nonnull align 8 dereferenceable(32) %11, ptr noundef nonnull align 8 dereferenceable(32) %2) #19
  %12 = getelementptr inbounds nuw i8, ptr %0, i64 64
  %13 = load i64, ptr %3, align 8
  store i64 %13, ptr %12, align 8
  store ptr null, ptr %3, align 8
  %14 = getelementptr inbounds nuw i8, ptr %0, i64 72
  %15 = load i64, ptr %4, align 8
  store i64 %15, ptr %14, align 8
  store ptr null, ptr %4, align 8
  %16 = getelementptr inbounds nuw i8, ptr %0, i64 80
  tail call void @llvm.memset.p0.i64(ptr noundef nonnull align 8 dereferenceable(24) %16, i8 0, i64 24, i1 false)
  %17 = getelementptr inbounds nuw i8, ptr %0, i64 104
  store i8 %10, ptr %17, align 8
  %18 = getelementptr inbounds nuw i8, ptr %0, i64 112
  tail call void @_ZNSt7__cxx1112basic_stringIcSt11char_traitsIcESaIcEEC1EOS4_(ptr noundef nonnull align 8 dereferenceable(32) %18, ptr noundef nonnull align 8 dereferenceable(32) %6) #19
  %19 = getelementptr inbounds nuw i8, ptr %0, i64 144
  store i32 %8, ptr %19, align 8
  %20 = getelementptr inbounds nuw i8, ptr %0, i64 148
  store i32 %7, ptr %20, align 4
  ret void
}